(dp1
S'/home/vagrant/event/plugins'
p2
(dp3
S'sharedStateB'
p4
(I454696
(dtp5
sS'sharedStateC'
p6
(I454696
(dtp7
sS'set_project_to_deadline'
p8
(I454686
(dtp9
sS'sharedStateA'
p10
(I454774
(dp11
tp12
sS'task_status_update_entity_status'
p13
(I454774
(dp14
tp15
ss.